target datalayout = "e-m:e-p270:32:32-p271:32:32-p272:64:64-i64:64-i128:128-f80:128-n8:16:32:64-S128"
target triple = "x86_64-pc-linux-gnu"

%struct._lv_obj_t = type { ptr, ptr, ptr, ptr, ptr, %struct.lv_area_t, i32, i16, i16 }
%struct.lv_area_t = type { i32, i32, i32, i32 }
%struct._lv_obj_spec_attr_t = type { ptr, ptr, %struct.lv_event_list_t, %struct.lv_point_t, i32, i32, i16, i16 }
%struct.lv_event_list_t = type { %struct._lv_array_t, i8 }
%struct._lv_array_t = type { ptr, i32, i32, i32, i8 }
%struct.lv_point_t = type { i32, i32 }
%union.lv_style_value_t = type { ptr }

; Function Attrs: nounwind uwtable
define i32 @lv_obj_get_scroll_top(ptr noundef %0) #0 {
  %2 = alloca i32, align 4
  %3 = alloca ptr, align 8
  store ptr %0, ptr %3, align 8, !tbaa !3
  %4 = load ptr, ptr %3, align 8, !tbaa !3
  %5 = getelementptr inbounds nuw %struct._lv_obj_t, ptr %4, i32 0, i32 2
  %6 = load ptr, ptr %5, align 8, !tbaa !9
  %7 = icmp eq ptr %6, null
  br i1 %7, label %8, label %9

8:                                                ; preds = %1
  store i32 0, ptr %2, align 4
  br label %17

9:                                                ; preds = %1
  %10 = load ptr, ptr %3, align 8, !tbaa !3
  %11 = getelementptr inbounds nuw %struct._lv_obj_t, ptr %10, i32 0, i32 2
  %12 = load ptr, ptr %11, align 8, !tbaa !9
  %13 = getelementptr inbounds nuw %struct._lv_obj_spec_attr_t, ptr %12, i32 0, i32 3
  %14 = getelementptr inbounds nuw %struct.lv_point_t, ptr %13, i32 0, i32 1
  %15 = load i32, ptr %14, align 4, !tbaa !19
  %16 = sub nsw i32 0, %15
  store i32 %16, ptr %2, align 4
  br label %17

17:                                               ; preds = %9, %8
  %18 = load i32, ptr %2, align 4
  ret i32 %18
}

; Function Attrs: nounwind uwtable
define i32 @lv_obj_get_scroll_y(ptr noundef %0) #0 {
  %2 = alloca i32, align 4
  %3 = alloca ptr, align 8
  store ptr %0, ptr %3, align 8, !tbaa !3
  %4 = load ptr, ptr %3, align 8, !tbaa !3
  %5 = getelementptr inbounds nuw %struct._lv_obj_t, ptr %4, i32 0, i32 2
  %6 = load ptr, ptr %5, align 8, !tbaa !9
  %7 = icmp eq ptr %6, null
  br i1 %7, label %8, label %9

8:                                                ; preds = %1
  store i32 0, ptr %2, align 4
  br label %17

9:                                                ; preds = %1
  %10 = load ptr, ptr %3, align 8, !tbaa !3
  %11 = getelementptr inbounds nuw %struct._lv_obj_t, ptr %10, i32 0, i32 2
  %12 = load ptr, ptr %11, align 8, !tbaa !9
  %13 = getelementptr inbounds nuw %struct._lv_obj_spec_attr_t, ptr %12, i32 0, i32 3
  %14 = getelementptr inbounds nuw %struct.lv_point_t, ptr %13, i32 0, i32 1
  %15 = load i32, ptr %14, align 4, !tbaa !19
  %16 = sub nsw i32 0, %15
  store i32 %16, ptr %2, align 4
  br label %17

17:                                               ; preds = %9, %8
  %18 = load i32, ptr %2, align 4
  ret i32 %18
}

; Function Attrs: inlinehint nounwind uwtable
define internal i32 @lv_obj_get_style_base_dir(ptr noundef %0, i32 noundef %1) #3 {
  %3 = alloca ptr, align 8
  %4 = alloca i32, align 4
  %5 = alloca %union.lv_style_value_t, align 8
  store ptr %0, ptr %3, align 8, !tbaa !3
  store i32 %1, ptr %4, align 4, !tbaa !7
  call void @llvm.lifetime.start.p0(i64 8, ptr %5) #5
  %6 = load ptr, ptr %3, align 8, !tbaa !3
  %7 = load i32, ptr %4, align 4, !tbaa !7
  %8 = call ptr @lv_obj_get_style_prop(ptr noundef %6, i32 noundef %7, i8 noundef zeroext 39)
  %9 = getelementptr inbounds nuw %union.lv_style_value_t, ptr %5, i32 0, i32 0
  store ptr %8, ptr %9, align 8
  %10 = load i32, ptr %5, align 8, !tbaa !24
  call void @llvm.lifetime.end.p0(i64 8, ptr %5) #5
  ret i32 %10
}

; Function Attrs: nounwind uwtable
define i32 @lv_obj_get_scroll_x(ptr noundef %0) #0 {
  %2 = alloca i32, align 4
  %3 = alloca ptr, align 8
  store ptr %0, ptr %3, align 8, !tbaa !3
  %4 = load ptr, ptr %3, align 8, !tbaa !3
  %5 = getelementptr inbounds nuw %struct._lv_obj_t, ptr %4, i32 0, i32 2
  %6 = load ptr, ptr %5, align 8, !tbaa !9
  %7 = icmp eq ptr %6, null
  br i1 %7, label %8, label %9

8:                                                ; preds = %1
  store i32 0, ptr %2, align 4
  br label %17

9:                                                ; preds = %1
  %10 = load ptr, ptr %3, align 8, !tbaa !3
  %11 = getelementptr inbounds nuw %struct._lv_obj_t, ptr %10, i32 0, i32 2
  %12 = load ptr, ptr %11, align 8, !tbaa !9
  %13 = getelementptr inbounds nuw %struct._lv_obj_spec_attr_t, ptr %12, i32 0, i32 3
  %14 = getelementptr inbounds nuw %struct.lv_point_t, ptr %13, i32 0, i32 0
  %15 = load i32, ptr %14, align 8, !tbaa !13
  %16 = sub nsw i32 0, %15
  store i32 %16, ptr %2, align 4
  br label %17

17:                                               ; preds = %9, %8
  %18 = load i32, ptr %2, align 4
  ret i32 %18
}

; Function Attrs: nounwind uwtable
define void @lv_obj_scroll_by_bounded(ptr noundef %0, i32 noundef %1, i32 noundef %2, i32 noundef %3) #0 {
  %5 = alloca ptr, align 8
  %6 = alloca i32, align 4
  %7 = alloca i32, align 4
  %8 = alloca i32, align 4
  %9 = alloca i32, align 4
  %10 = alloca i32, align 4
  %11 = alloca i32, align 4
  %12 = alloca i32, align 4
  %13 = alloca i32, align 4
  %14 = alloca i32, align 4
  %15 = alloca i32, align 4
  store ptr %0, ptr %5, align 8, !tbaa !3
  store i32 %1, ptr %6, align 4, !tbaa !7
  store i32 %2, ptr %7, align 4, !tbaa !7
  store i32 %3, ptr %8, align 4, !tbaa !7
  %16 = load i32, ptr %6, align 4, !tbaa !7
  %17 = icmp eq i32 %16, 0
  br i1 %17, label %18, label %22

18:                                               ; preds = %4
  %19 = load i32, ptr %7, align 4, !tbaa !7
  %20 = icmp eq i32 %19, 0
  br i1 %20, label %21, label %22

21:                                               ; preds = %18
  br label %132

22:                                               ; preds = %18, %4
  %23 = load ptr, ptr %5, align 8, !tbaa !3
  call void @lv_obj_update_layout(ptr noundef %23)
  call void @llvm.lifetime.start.p0(i64 4, ptr %9) #5
  %24 = load ptr, ptr %5, align 8, !tbaa !3
  %25 = call i32 @lv_obj_get_scroll_x(ptr noundef %24)
  %26 = sub nsw i32 0, %25
  store i32 %26, ptr %9, align 4, !tbaa !7
  call void @llvm.lifetime.start.p0(i64 4, ptr %10) #5
  %27 = load i32, ptr %9, align 4, !tbaa !7
  %28 = load i32, ptr %6, align 4, !tbaa !7
  %29 = add nsw i32 %27, %28
  store i32 %29, ptr %10, align 4, !tbaa !7
  %30 = load ptr, ptr %5, align 8, !tbaa !3
  %31 = call i32 @lv_obj_get_style_base_dir(ptr noundef %30, i32 noundef 0)
  %32 = icmp ne i32 %31, 1
  br i1 %32, label %33, label %59

33:                                               ; preds = %22
  %34 = load i32, ptr %10, align 4, !tbaa !7
  %35 = icmp sgt i32 %34, 0
  br i1 %35, label %36, label %37

36:                                               ; preds = %33
  store i32 0, ptr %10, align 4, !tbaa !7
  br label %37

37:                                               ; preds = %36, %33
  %38 = load i32, ptr %10, align 4, !tbaa !7
  %39 = icmp slt i32 %38, 0
  br i1 %39, label %40, label %58

40:                                               ; preds = %37
  call void @llvm.lifetime.start.p0(i64 4, ptr %11) #5
  %41 = load ptr, ptr %5, align 8, !tbaa !3
  %42 = call i32 @lv_obj_get_scroll_left(ptr noundef %41)
  %43 = load ptr, ptr %5, align 8, !tbaa !3
  %44 = call i32 @lv_obj_get_scroll_right(ptr noundef %43)
  %45 = add nsw i32 %42, %44
  store i32 %45, ptr %11, align 4, !tbaa !7
  %46 = load i32, ptr %11, align 4, !tbaa !7
  %47 = icmp slt i32 %46, 0
  br i1 %47, label %48, label %49

48:                                               ; preds = %40
  store i32 0, ptr %11, align 4, !tbaa !7
  br label %49

49:                                               ; preds = %48, %40
  %50 = load i32, ptr %10, align 4, !tbaa !7
  %51 = load i32, ptr %11, align 4, !tbaa !7
  %52 = sub nsw i32 0, %51
  %53 = icmp slt i32 %50, %52
  br i1 %53, label %54, label %57

54:                                               ; preds = %49
  %55 = load i32, ptr %11, align 4, !tbaa !7
  %56 = sub nsw i32 0, %55
  store i32 %56, ptr %10, align 4, !tbaa !7
  br label %57

57:                                               ; preds = %54, %49
  call void @llvm.lifetime.end.p0(i64 4, ptr %11) #5
  br label %58

58:                                               ; preds = %57, %37
  br label %83

59:                                               ; preds = %22
  %60 = load i32, ptr %10, align 4, !tbaa !7
  %61 = icmp slt i32 %60, 0
  br i1 %61, label %62, label %63

62:                                               ; preds = %59
  store i32 0, ptr %10, align 4, !tbaa !7
  br label %63

63:                                               ; preds = %62, %59
  %64 = load i32, ptr %10, align 4, !tbaa !7
  %65 = icmp sgt i32 %64, 0
  br i1 %65, label %66, label %82

66:                                               ; preds = %63
  call void @llvm.lifetime.start.p0(i64 4, ptr %12) #5
  %67 = load ptr, ptr %5, align 8, !tbaa !3
  %68 = call i32 @lv_obj_get_scroll_left(ptr noundef %67)
  %69 = load ptr, ptr %5, align 8, !tbaa !3
  %70 = call i32 @lv_obj_get_scroll_right(ptr noundef %69)
  %71 = add nsw i32 %68, %70
  store i32 %71, ptr %12, align 4, !tbaa !7
  %72 = load i32, ptr %12, align 4, !tbaa !7
  %73 = icmp slt i32 %72, 0
  br i1 %73, label %74, label %75

74:                                               ; preds = %66
  store i32 0, ptr %12, align 4, !tbaa !7
  br label %75

75:                                               ; preds = %74, %66
  %76 = load i32, ptr %10, align 4, !tbaa !7
  %77 = load i32, ptr %12, align 4, !tbaa !7
  %78 = icmp sgt i32 %76, %77
  br i1 %78, label %79, label %81

79:                                               ; preds = %75
  %80 = load i32, ptr %12, align 4, !tbaa !7
  store i32 %80, ptr %10, align 4, !tbaa !7
  br label %81

81:                                               ; preds = %79, %75
  call void @llvm.lifetime.end.p0(i64 4, ptr %12) #5
  br label %82

82:                                               ; preds = %81, %63
  br label %83

83:                                               ; preds = %82, %58
  call void @llvm.lifetime.start.p0(i64 4, ptr %13) #5
  %84 = load ptr, ptr %5, align 8, !tbaa !3
  %85 = call i32 @lv_obj_get_scroll_y(ptr noundef %84)
  %86 = sub nsw i32 0, %85
  store i32 %86, ptr %13, align 4, !tbaa !7
  call void @llvm.lifetime.start.p0(i64 4, ptr %14) #5
  %87 = load i32, ptr %13, align 4, !tbaa !7
  %88 = load i32, ptr %7, align 4, !tbaa !7
  %89 = add nsw i32 %87, %88
  store i32 %89, ptr %14, align 4, !tbaa !7
  %90 = load i32, ptr %14, align 4, !tbaa !7
  %91 = icmp sgt i32 %90, 0
  br i1 %91, label %92, label %93

92:                                               ; preds = %83
  store i32 0, ptr %14, align 4, !tbaa !7
  br label %93

93:                                               ; preds = %92, %83
  %94 = load i32, ptr %14, align 4, !tbaa !7
  %95 = icmp slt i32 %94, 0
  br i1 %95, label %96, label %114

96:                                               ; preds = %93
  call void @llvm.lifetime.start.p0(i64 4, ptr %15) #5
  %97 = load ptr, ptr %5, align 8, !tbaa !3
  %98 = call i32 @lv_obj_get_scroll_top(ptr noundef %97)
  %99 = load ptr, ptr %5, align 8, !tbaa !3
  %100 = call i32 @lv_obj_get_scroll_bottom(ptr noundef %99)
  %101 = add nsw i32 %98, %100
  store i32 %101, ptr %15, align 4, !tbaa !7
  %102 = load i32, ptr %15, align 4, !tbaa !7
  %103 = icmp slt i32 %102, 0
  br i1 %103, label %104, label %105

104:                                              ; preds = %96
  store i32 0, ptr %15, align 4, !tbaa !7
  br label %105

105:                                              ; preds = %104, %96
  %106 = load i32, ptr %14, align 4, !tbaa !7
  %107 = load i32, ptr %15, align 4, !tbaa !7
  %108 = sub nsw i32 0, %107
  %109 = icmp slt i32 %106, %108
  br i1 %109, label %110, label %113

110:                                              ; preds = %105
  %111 = load i32, ptr %15, align 4, !tbaa !7
  %112 = sub nsw i32 0, %111
  store i32 %112, ptr %14, align 4, !tbaa !7
  br label %113

113:                                              ; preds = %110, %105
  call void @llvm.lifetime.end.p0(i64 4, ptr %15) #5
  br label %114

114:                                              ; preds = %113, %93
  %115 = load i32, ptr %10, align 4, !tbaa !7
  %116 = load i32, ptr %9, align 4, !tbaa !7
  %117 = sub nsw i32 %115, %116
  store i32 %117, ptr %6, align 4, !tbaa !7
  %118 = load i32, ptr %14, align 4, !tbaa !7
  %119 = load i32, ptr %13, align 4, !tbaa !7
  %120 = sub nsw i32 %118, %119
  store i32 %120, ptr %7, align 4, !tbaa !7
  %121 = load i32, ptr %6, align 4, !tbaa !7
  %122 = icmp ne i32 %121, 0
  br i1 %122, label %126, label %123

123:                                              ; preds = %114
  %124 = load i32, ptr %7, align 4, !tbaa !7
  %125 = icmp ne i32 %124, 0
  br i1 %125, label %126, label %131

126:                                              ; preds = %123, %114
  %127 = load ptr, ptr %5, align 8, !tbaa !3
  %128 = load i32, ptr %6, align 4, !tbaa !7
  %129 = load i32, ptr %7, align 4, !tbaa !7
  %130 = load i32, ptr %8, align 4, !tbaa !7
  call void @lv_obj_scroll_by(ptr noundef %127, i32 noundef %128, i32 noundef %129, i32 noundef %130)
  br label %131

131:                                              ; preds = %126, %123
  call void @llvm.lifetime.end.p0(i64 4, ptr %14) #5
  call void @llvm.lifetime.end.p0(i64 4, ptr %13) #5
  call void @llvm.lifetime.end.p0(i64 4, ptr %10) #5
  call void @llvm.lifetime.end.p0(i64 4, ptr %9) #5
  br label %132

132:                                              ; preds = %131, %21
  ret void
}