; Function Attrs: nounwind uwtable
define void @lv_obj_scroll_by_bounded(ptr noundef %0, i32 noundef %1, i32 noundef %2, i32 noundef %3) local_unnamed_addr #0 {
  %5 = or i32 %2, %1
  %or.cond = icmp eq i32 %5, 0
  br i1 %or.cond, label %48, label %6

6:                                                ; preds = %4
  tail call void @lv_obj_update_layout(ptr noundef %0) #5
  %7 = getelementptr inbounds nuw i8, ptr %0, i64 16
  %8 = load ptr, ptr %7, align 8, !tbaa !3
  %9 = icmp eq ptr %8, null
  br i1 %9, label %lv_obj_get_scroll_x.exit, label %10

10:                                               ; preds = %6
  %11 = getelementptr inbounds nuw i8, ptr %8, i64 48
  %12 = load i32, ptr %11, align 8, !tbaa !11
  %13 = sub nsw i32 0, %12
  br label %lv_obj_get_scroll_x.exit

lv_obj_get_scroll_x.exit:                         ; preds = %6, %10
  %.0.i = phi i32 [ %13, %10 ], [ 0, %6 ]
  %14 = sub nsw i32 %1, %.0.i
  %15 = tail call ptr @lv_obj_get_style_prop(ptr noundef nonnull %0, i32 noundef 0, i8 noundef zeroext 39) #5
  %16 = ptrtoint ptr %15 to i64
  %17 = and i64 %16, 4294967295
  %.not = icmp eq i64 %17, 1
  br i1 %.not, label %25, label %18

18:                                               ; preds = %lv_obj_get_scroll_x.exit
  %spec.store.select = tail call i32 @llvm.smin.i32(i32 %14, i32 0)
  %19 = icmp slt i32 %14, 0
  br i1 %19, label %20, label %30

20:                                               ; preds = %18
  %21 = tail call i32 @lv_obj_get_scroll_left(ptr noundef nonnull %0)
  %22 = tail call i32 @lv_obj_get_scroll_right(ptr noundef nonnull %0)
  %23 = add nsw i32 %22, %21
  %spec.store.select2 = tail call i32 @llvm.smax.i32(i32 %23, i32 0)
  %24 = sub nsw i32 0, %spec.store.select2
  %spec.select = tail call i32 @llvm.smax.i32(i32 %spec.store.select, i32 %24)
  br label %30

25:                                               ; preds = %lv_obj_get_scroll_x.exit
  %.not55 = icmp slt i32 %14, 1
  br i1 %.not55, label %30, label %26

26:                                               ; preds = %25
  %27 = tail call i32 @lv_obj_get_scroll_left(ptr noundef nonnull %0)
  %28 = tail call i32 @lv_obj_get_scroll_right(ptr noundef nonnull %0)
  %29 = add nsw i32 %28, %27
  %minmaxop = tail call i32 @llvm.smin.i32(i32 %29, i32 %14)
  %.2 = tail call i32 @llvm.smax.i32(i32 %minmaxop, i32 0)
  br label %30

30:                                               ; preds = %25, %26, %18, %20
  %.152 = phi i32 [ %spec.select, %20 ], [ %spec.store.select, %18 ], [ %.2, %26 ], [ 0, %25 ]
  %31 = load ptr, ptr %7, align 8, !tbaa !3
  %32 = icmp eq ptr %31, null
  br i1 %32, label %lv_obj_get_scroll_y.exit, label %lv_obj_get_scroll_y.exit.thread

lv_obj_get_scroll_y.exit:                         ; preds = %30
  %spec.store.select5 = tail call i32 @llvm.smin.i32(i32 %2, i32 0)
  %33 = icmp slt i32 %2, 0
  br i1 %33, label %lv_obj_get_scroll_top.exit, label %42

lv_obj_get_scroll_y.exit.thread:                  ; preds = %30
  %34 = getelementptr inbounds nuw i8, ptr %31, i64 52
  %35 = load i32, ptr %34, align 4, !tbaa !17
  %36 = sub nsw i32 0, %35
  %37 = add nsw i32 %35, %2
  %spec.store.select560 = tail call i32 @llvm.smin.i32(i32 %37, i32 0)
  %38 = icmp slt i32 %37, 0
  br i1 %38, label %lv_obj_get_scroll_top.exit, label %42

lv_obj_get_scroll_top.exit:                       ; preds = %lv_obj_get_scroll_y.exit.thread, %lv_obj_get_scroll_y.exit
  %.0.i576269 = phi i32 [ 0, %lv_obj_get_scroll_y.exit ], [ %36, %lv_obj_get_scroll_y.exit.thread ]
  %spec.store.select56367 = phi i32 [ %spec.store.select5, %lv_obj_get_scroll_y.exit ], [ %spec.store.select560, %lv_obj_get_scroll_y.exit.thread ]
  %39 = tail call i32 @lv_obj_get_scroll_bottom(ptr noundef nonnull %0)
  %40 = add nsw i32 %39, %.0.i576269
  %spec.store.select6 = tail call i32 @llvm.smax.i32(i32 %40, i32 0)
  %41 = sub nsw i32 0, %spec.store.select6
  %spec.select56 = tail call i32 @llvm.smax.i32(i32 %spec.store.select56367, i32 %41)
  br label %42

42:                                               ; preds = %lv_obj_get_scroll_y.exit.thread, %lv_obj_get_scroll_top.exit, %lv_obj_get_scroll_y.exit
  %.0.i5761 = phi i32 [ %.0.i576269, %lv_obj_get_scroll_top.exit ], [ 0, %lv_obj_get_scroll_y.exit ], [ %36, %lv_obj_get_scroll_y.exit.thread ]
  %.0 = phi i32 [ %spec.select56, %lv_obj_get_scroll_top.exit ], [ %spec.store.select5, %lv_obj_get_scroll_y.exit ], [ %spec.store.select560, %lv_obj_get_scroll_y.exit.thread ]
  %43 = add nsw i32 %.152, %.0.i
  %44 = add nsw i32 %.0, %.0.i5761
  %45 = icmp ne i32 %43, 0
  %46 = icmp ne i32 %44, 0
  %or.cond8 = select i1 %45, i1 true, i1 %46
  br i1 %or.cond8, label %47, label %48

47:                                               ; preds = %42
  tail call void @lv_obj_scroll_by(ptr noundef nonnull %0, i32 noundef %43, i32 noundef %44, i32 noundef %3)
  br label %48

48:                                               ; preds = %47, %42, %4
  ret void
}